; Function Attrs: mustprogress nofree norecurse nosync nounwind willreturn memory(readwrite, inaccessiblemem: none) uwtable
define internal void @_ZNK5faiss20LocalSearchQuantizer15icm_encode_implEPiPKfS3_RSt23mersenne_twister_engineImLm32ELm624ELm397ELm31ELm2567483615ELm11ELm4294967295ELm7ELm2636928640ELm15ELm4022730752ELm18ELm1812433253EEmmb.omp_outlined.omp.reduction.reduction_func(ptr nocapture noundef readonly %0, ptr nocapture noundef readonly %1) #16 {
  %3 = load ptr, ptr %1, align 8
  %4 = load ptr, ptr %0, align 8
  %5 = getelementptr inbounds i8, ptr %1, i64 8
  %6 = load ptr, ptr %5, align 8
  %7 = getelementptr inbounds i8, ptr %0, i64 8
  %8 = load ptr, ptr %7, align 8
  %9 = load i64, ptr %4, align 8
  %10 = load i64, ptr %3, align 8
  %11 = add i64 %10, %9
  store i64 %11, ptr %4, align 8
  %12 = load float, ptr %8, align 4
  %13 = load float, ptr %6, align 4
  %14 = fadd float %12, %13
  store float %14, ptr %8, align 4
  ret void
}